; Function Attrs: mustprogress nounwind uwtable
define dso_local noundef i64 @_ZN4llvm7LLLexer6atoullEPKcS2_(ptr nocapture noundef nonnull readonly align 8 dereferenceable(161) %0, ptr noundef readonly %1, ptr noundef readnone %2) local_unnamed_addr #0 align 2 {
  %4 = alloca %"class.llvm::Twine", align 8
  %.not15 = icmp eq ptr %1, %2
  br i1 %.not15, label %.loopexit, label %.lr.ph

5:                                                ; preds = %.lr.ph
  %6 = getelementptr inbounds i8, ptr %.01216, i64 1
  %.not = icmp eq ptr %6, %2
  br i1 %.not, label %.loopexit, label %.lr.ph, !llvm.loop !6

.lr.ph:                                           ; preds = %3, %5
  %.01117 = phi i64 [ %11, %5 ], [ 0, %3 ]
  %.01216 = phi ptr [ %6, %5 ], [ %1, %3 ]
  %7 = mul i64 %.01117, 10
  %8 = load i8, ptr %.01216, align 1
  %9 = sext i8 %8 to i64
  %10 = add i64 %7, -48
  %11 = add i64 %10, %9
  %12 = icmp ult i64 %11, %.01117
  br i1 %12, label %13, label %5

13:                                               ; preds = %.lr.ph
  %14 = getelementptr inbounds nuw i8, ptr %4, i64 32
  %15 = getelementptr inbounds nuw i8, ptr %4, i64 33
  store i8 1, ptr %15, align 1
  store ptr @.str, ptr %4, align 8
  store i8 3, ptr %14, align 8
  %16 = getelementptr inbounds nuw i8, ptr %0, i64 48
  %17 = load ptr, ptr %16, align 8
  %18 = call noundef zeroext i1 @_ZNK4llvm7LLLexer5ErrorENS_5SMLocERKNS_5TwineE(ptr noundef nonnull align 8 dereferenceable(161) %0, ptr %17, ptr noundef nonnull align 8 dereferenceable(34) %4)
  br label %.loopexit

.loopexit:                                        ; preds = %5, %3, %13
  %.0 = phi i64 [ 0, %13 ], [ 0, %3 ], [ %11, %5 ]
  ret i64 %.0
}